target datalayout = "e-m:e-p270:32:32-p271:32:32-p272:64:64-i64:64-i128:128-f80:128-n8:16:32:64-S128"
target triple = "x86_64-pc-linux-gnu"

%struct.ident_t = type { i32, i32, i32, i32, ptr }
%"class.LightGBM::RegressionL2loss" = type <{ %"class.LightGBM::ObjectiveFunction", i8, [3 x i8], i32, ptr, ptr, %"class.std::vector", i8, [7 x i8] }>
%"class.LightGBM::ObjectiveFunction" = type { ptr }
%"class.std::vector" = type { %"struct.std::_Vector_base" }
%"struct.std::_Vector_base" = type { %"struct.std::_Vector_base<float, std::allocator<float>>::_Vector_impl" }
%"struct.std::_Vector_base<float, std::allocator<float>>::_Vector_impl" = type { %"struct.std::_Vector_base<float, std::allocator<float>>::_Vector_impl_data" }
%"struct.std::_Vector_base<float, std::allocator<float>>::_Vector_impl_data" = type { ptr, ptr, ptr }

@1 = private unnamed_addr constant %struct.ident_t { i32 0, i32 514, i32 0, i32 22, ptr @0 }, align 8
@.gomp_critical_user_.reduction.var = common global [8 x i32] zeroinitializer, align 8
@3 = private unnamed_addr constant %struct.ident_t { i32 0, i32 18, i32 0, i32 22, ptr @0 }, align 8

; Function Attrs: noinline norecurse nounwind uwtable
define internal void @_ZNK8LightGBM16RegressionL2loss14BoostFromScoreEi.omp_outlined(ptr noalias noundef %0, ptr noalias noundef %1, ptr noundef %2, ptr noundef nonnull align 8 dereferenceable(8) %3, ptr noundef nonnull align 8 dereferenceable(8) %4) #19 {
  %6 = alloca ptr, align 8
  %7 = alloca ptr, align 8
  %8 = alloca ptr, align 8
  %9 = alloca ptr, align 8
  %10 = alloca ptr, align 8
  %11 = alloca i32, align 4
  %12 = alloca i32, align 4
  %13 = alloca i32, align 4
  %14 = alloca i32, align 4
  %15 = alloca i32, align 4
  %16 = alloca i32, align 4
  %17 = alloca i32, align 4
  %18 = alloca i32, align 4
  %19 = alloca double, align 8
  %20 = alloca double, align 8
  %21 = alloca i32, align 4
  %22 = alloca [2 x ptr], align 8
  store ptr %0, ptr %6, align 8, !tbaa !193
  store ptr %1, ptr %7, align 8, !tbaa !193
  store ptr %2, ptr %8, align 8, !tbaa !17
  store ptr %3, ptr %9, align 8, !tbaa !191
  store ptr %4, ptr %10, align 8, !tbaa !191
  %23 = load ptr, ptr %8, align 8, !tbaa !17
  %24 = load ptr, ptr %9, align 8, !tbaa !191
  %25 = load ptr, ptr %10, align 8, !tbaa !191
  call void @llvm.lifetime.start.p0(i64 4, ptr %11) #3
  call void @llvm.lifetime.start.p0(i64 4, ptr %12) #3
  %26 = getelementptr inbounds nuw %"class.LightGBM::RegressionL2loss", ptr %23, i32 0, i32 3
  %27 = load i32, ptr %26, align 4, !tbaa !188
  store i32 %27, ptr %12, align 4, !tbaa !141
  call void @llvm.lifetime.start.p0(i64 4, ptr %13) #3
  %28 = load i32, ptr %12, align 4, !tbaa !141
  %29 = sub nsw i32 %28, 0
  %30 = sdiv i32 %29, 1
  %31 = sub nsw i32 %30, 1
  store i32 %31, ptr %13, align 4, !tbaa !141
  call void @llvm.lifetime.start.p0(i64 4, ptr %14) #3
  store i32 0, ptr %14, align 4, !tbaa !141
  call void @llvm.lifetime.end.p0(i64 4, ptr %14) #3
  %32 = load i32, ptr %12, align 4, !tbaa !141
  %33 = icmp slt i32 0, %32
  br i1 %33, label %34, label %108

34:                                               ; preds = %5
  call void @llvm.lifetime.start.p0(i64 4, ptr %15) #3
  store i32 0, ptr %15, align 4, !tbaa !141
  call void @llvm.lifetime.start.p0(i64 4, ptr %16) #3
  %35 = load i32, ptr %13, align 4, !tbaa !141
  store i32 %35, ptr %16, align 4, !tbaa !141
  call void @llvm.lifetime.start.p0(i64 4, ptr %17) #3
  store i32 1, ptr %17, align 4, !tbaa !141
  call void @llvm.lifetime.start.p0(i64 4, ptr %18) #3
  store i32 0, ptr %18, align 4, !tbaa !141
  call void @llvm.lifetime.start.p0(i64 8, ptr %19) #3
  store double 0.000000e+00, ptr %19, align 8, !tbaa !194
  call void @llvm.lifetime.start.p0(i64 8, ptr %20) #3
  store double 0.000000e+00, ptr %20, align 8, !tbaa !194
  call void @llvm.lifetime.start.p0(i64 4, ptr %21) #3
  %36 = load ptr, ptr %6, align 8
  %37 = load i32, ptr %36, align 4, !tbaa !141
  call void @__kmpc_for_static_init_4(ptr @1, i32 %37, i32 34, ptr %18, ptr %15, ptr %16, ptr %17, i32 1, i32 1)
  %38 = load i32, ptr %16, align 4, !tbaa !141
  %39 = load i32, ptr %13, align 4, !tbaa !141
  %40 = icmp sgt i32 %38, %39
  br i1 %40, label %41, label %43

41:                                               ; preds = %34
  %42 = load i32, ptr %13, align 4, !tbaa !141
  br label %45

43:                                               ; preds = %34
  %44 = load i32, ptr %16, align 4, !tbaa !141
  br label %45

45:                                               ; preds = %43, %41
  %46 = phi i32 [ %42, %41 ], [ %44, %43 ]
  store i32 %46, ptr %16, align 4, !tbaa !141
  %47 = load i32, ptr %15, align 4, !tbaa !141
  store i32 %47, ptr %11, align 4, !tbaa !141
  br label %48

48:                                               ; preds = %83, %45
  %49 = load i32, ptr %11, align 4, !tbaa !141
  %50 = load i32, ptr %16, align 4, !tbaa !141
  %51 = icmp sle i32 %49, %50
  br i1 %51, label %53, label %52

52:                                               ; preds = %48
  br label %86

53:                                               ; preds = %48
  %54 = load i32, ptr %11, align 4, !tbaa !141
  %55 = mul nsw i32 %54, 1
  %56 = add nsw i32 0, %55
  store i32 %56, ptr %21, align 4, !tbaa !141
  %57 = getelementptr inbounds nuw %"class.LightGBM::RegressionL2loss", ptr %23, i32 0, i32 4
  %58 = load ptr, ptr %57, align 8, !tbaa !189
  %59 = load i32, ptr %21, align 4, !tbaa !141
  %60 = sext i32 %59 to i64
  %61 = getelementptr inbounds float, ptr %58, i64 %60
  %62 = load float, ptr %61, align 4, !tbaa !210
  %63 = fpext float %62 to double
  %64 = getelementptr inbounds nuw %"class.LightGBM::RegressionL2loss", ptr %23, i32 0, i32 5
  %65 = load ptr, ptr %64, align 8, !tbaa !190
  %66 = load i32, ptr %21, align 4, !tbaa !141
  %67 = sext i32 %66 to i64
  %68 = getelementptr inbounds float, ptr %65, i64 %67
  %69 = load float, ptr %68, align 4, !tbaa !210
  %70 = fpext float %69 to double
  %71 = load double, ptr %19, align 8, !tbaa !194
  %72 = call double @llvm.fmuladd.f64(double %63, double %70, double %71)
  store double %72, ptr %19, align 8, !tbaa !194
  %73 = getelementptr inbounds nuw %"class.LightGBM::RegressionL2loss", ptr %23, i32 0, i32 5
  %74 = load ptr, ptr %73, align 8, !tbaa !190
  %75 = load i32, ptr %21, align 4, !tbaa !141
  %76 = sext i32 %75 to i64
  %77 = getelementptr inbounds float, ptr %74, i64 %76
  %78 = load float, ptr %77, align 4, !tbaa !210
  %79 = fpext float %78 to double
  %80 = load double, ptr %20, align 8, !tbaa !194
  %81 = fadd double %80, %79
  store double %81, ptr %20, align 8, !tbaa !194
  br label %82

82:                                               ; preds = %53
  br label %83

83:                                               ; preds = %82
  %84 = load i32, ptr %11, align 4, !tbaa !141
  %85 = add nsw i32 %84, 1
  store i32 %85, ptr %11, align 4, !tbaa !141
  br label %48

86:                                               ; preds = %52
  br label %87

87:                                               ; preds = %86
  %88 = load ptr, ptr %6, align 8
  %89 = load i32, ptr %88, align 4, !tbaa !141
  call void @__kmpc_for_static_fini(ptr @1, i32 %89)
  %90 = getelementptr inbounds [2 x ptr], ptr %22, i64 0, i64 0
  store ptr %19, ptr %90, align 8
  %91 = getelementptr inbounds [2 x ptr], ptr %22, i64 0, i64 1
  store ptr %20, ptr %91, align 8
  %92 = load ptr, ptr %6, align 8
  %93 = load i32, ptr %92, align 4, !tbaa !141
  %94 = call i32 @__kmpc_reduce_nowait(ptr @3, i32 %93, i32 2, i64 16, ptr %22, ptr @_ZNK8LightGBM16RegressionL2loss14BoostFromScoreEi.omp_outlined.omp.reduction.reduction_func, ptr @.gomp_critical_user_.reduction.var)
  switch i32 %94, label %107 [
    i32 1, label %95
    i32 2, label %102
  ]

95:                                               ; preds = %87
  %96 = load double, ptr %24, align 8, !tbaa !194
  %97 = load double, ptr %19, align 8, !tbaa !194
  %98 = fadd double %96, %97
  store double %98, ptr %24, align 8, !tbaa !194
  %99 = load double, ptr %25, align 8, !tbaa !194
  %100 = load double, ptr %20, align 8, !tbaa !194
  %101 = fadd double %99, %100
  store double %101, ptr %25, align 8, !tbaa !194
  call void @__kmpc_end_reduce_nowait(ptr @3, i32 %93, ptr @.gomp_critical_user_.reduction.var)
  br label %107

102:                                              ; preds = %87
  %103 = load double, ptr %19, align 8, !tbaa !194
  %104 = atomicrmw fadd ptr %24, double %103 monotonic, align 8
  %105 = load double, ptr %20, align 8, !tbaa !194
  %106 = atomicrmw fadd ptr %25, double %105 monotonic, align 8
  br label %107

107:                                              ; preds = %102, %95, %87
  call void @llvm.lifetime.end.p0(i64 4, ptr %21) #3
  call void @llvm.lifetime.end.p0(i64 8, ptr %20) #3
  call void @llvm.lifetime.end.p0(i64 8, ptr %19) #3
  call void @llvm.lifetime.end.p0(i64 4, ptr %18) #3
  call void @llvm.lifetime.end.p0(i64 4, ptr %17) #3
  call void @llvm.lifetime.end.p0(i64 4, ptr %16) #3
  call void @llvm.lifetime.end.p0(i64 4, ptr %15) #3
  br label %108

108:                                              ; preds = %107, %5
  call void @llvm.lifetime.end.p0(i64 4, ptr %13) #3
  call void @llvm.lifetime.end.p0(i64 4, ptr %12) #3
  call void @llvm.lifetime.end.p0(i64 4, ptr %11) #3
  ret void
}