; Function Attrs: noinline norecurse nounwind uwtable
define internal void @_ZNK8LightGBM16RegressionL2loss14BoostFromScoreEi.omp_outlined(ptr noalias noundef readonly captures(none) %0, ptr noalias readnone captures(none) %1, ptr noundef readonly captures(none) %2, ptr noundef nonnull align 8 captures(none) dereferenceable(8) %3, ptr noundef nonnull align 8 captures(none) dereferenceable(8) %4) #17 {
  %6 = alloca i32, align 4
  %7 = alloca i32, align 4
  %8 = alloca i32, align 4
  %9 = alloca i32, align 4
  %10 = alloca double, align 8
  %11 = alloca double, align 8
  %12 = alloca [2 x ptr], align 8
  %13 = getelementptr inbounds nuw i8, ptr %2, i64 12
  %14 = load i32, ptr %13, align 4, !tbaa !147
  %15 = icmp sgt i32 %14, 0
  br i1 %15, label %16, label %54

16:                                               ; preds = %5
  %17 = add nsw i32 %14, -1
  call void @llvm.lifetime.start.p0(i64 4, ptr nonnull %6) #15
  store i32 0, ptr %6, align 4, !tbaa !127
  call void @llvm.lifetime.start.p0(i64 4, ptr nonnull %7) #15
  store i32 %17, ptr %7, align 4, !tbaa !127
  call void @llvm.lifetime.start.p0(i64 4, ptr nonnull %8) #15
  store i32 1, ptr %8, align 4, !tbaa !127
  call void @llvm.lifetime.start.p0(i64 4, ptr nonnull %9) #15
  store i32 0, ptr %9, align 4, !tbaa !127
  call void @llvm.lifetime.start.p0(i64 8, ptr nonnull %10) #15
  call void @llvm.lifetime.start.p0(i64 8, ptr nonnull %11) #15
  %18 = load i32, ptr %0, align 4, !tbaa !127
  call void @__kmpc_for_static_init_4(ptr nonnull @1, i32 %18, i32 34, ptr nonnull %9, ptr nonnull %6, ptr nonnull %7, ptr nonnull %8, i32 1, i32 1)
  %19 = load i32, ptr %7, align 4, !tbaa !127
  %20 = call i32 @llvm.smin.i32(i32 %19, i32 %17)
  store i32 %20, ptr %7, align 4, !tbaa !127
  %21 = load i32, ptr %6, align 4, !tbaa !127
  %.not18 = icmp sgt i32 %21, %20
  br i1 %.not18, label %._crit_edge, label %.lr.ph

.lr.ph:                                           ; preds = %16
  %22 = getelementptr inbounds nuw i8, ptr %2, i64 16
  %23 = load ptr, ptr %22, align 8, !tbaa !148
  %24 = getelementptr inbounds nuw i8, ptr %2, i64 24
  %25 = load ptr, ptr %24, align 8, !tbaa !151
  %26 = sext i32 %21 to i64
  %27 = add nsw i32 %20, 1
  br label %28

28:                                               ; preds = %.lr.ph, %28
  %indvars.iv = phi i64 [ %26, %.lr.ph ], [ %indvars.iv.next, %28 ]
  %29 = phi double [ 0.000000e+00, %.lr.ph ], [ %37, %28 ]
  %30 = phi double [ 0.000000e+00, %.lr.ph ], [ %38, %28 ]
  %31 = getelementptr inbounds float, ptr %23, i64 %indvars.iv
  %32 = load float, ptr %31, align 4, !tbaa !175
  %33 = fpext float %32 to double
  %34 = getelementptr inbounds float, ptr %25, i64 %indvars.iv
  %35 = load float, ptr %34, align 4, !tbaa !175
  %36 = fpext float %35 to double
  %37 = call double @llvm.fmuladd.f64(double %33, double %36, double %29)
  %38 = fadd double %30, %36
  %indvars.iv.next = add nsw i64 %indvars.iv, 1
  %lftr.wideiv = trunc i64 %indvars.iv.next to i32
  %exitcond.not = icmp eq i32 %27, %lftr.wideiv
  br i1 %exitcond.not, label %._crit_edge, label %28

._crit_edge:                                      ; preds = %28, %16
  %.lcssa17 = phi double [ 0.000000e+00, %16 ], [ %38, %28 ]
  %.lcssa = phi double [ 0.000000e+00, %16 ], [ %37, %28 ]
  store double %.lcssa, ptr %10, align 8
  store double %.lcssa17, ptr %11, align 8
  call void @__kmpc_for_static_fini(ptr nonnull @1, i32 %18)
  store ptr %10, ptr %12, align 8
  %39 = getelementptr inbounds nuw i8, ptr %12, i64 8
  store ptr %11, ptr %39, align 8
  %40 = call i32 @__kmpc_reduce_nowait(ptr nonnull @3, i32 %18, i32 2, i64 16, ptr nonnull %12, ptr nonnull @_ZNK8LightGBM16RegressionL2loss14BoostFromScoreEi.omp_outlined.omp.reduction.reduction_func, ptr nonnull @.gomp_critical_user_.reduction.var)
  switch i32 %40, label %53 [
    i32 1, label %41
    i32 2, label %48
  ]

41:                                               ; preds = %._crit_edge
  %42 = load double, ptr %3, align 8, !tbaa !153
  %43 = load double, ptr %10, align 8, !tbaa !153
  %44 = fadd double %42, %43
  store double %44, ptr %3, align 8, !tbaa !153
  %45 = load double, ptr %4, align 8, !tbaa !153
  %46 = load double, ptr %11, align 8, !tbaa !153
  %47 = fadd double %45, %46
  store double %47, ptr %4, align 8, !tbaa !153
  call void @__kmpc_end_reduce_nowait(ptr nonnull @3, i32 %18, ptr nonnull @.gomp_critical_user_.reduction.var)
  br label %53

48:                                               ; preds = %._crit_edge
  %49 = load double, ptr %10, align 8, !tbaa !153
  %50 = atomicrmw fadd ptr %3, double %49 monotonic, align 8
  %51 = load double, ptr %11, align 8, !tbaa !153
  %52 = atomicrmw fadd ptr %4, double %51 monotonic, align 8
  br label %53

53:                                               ; preds = %48, %41, %._crit_edge
  call void @llvm.lifetime.end.p0(i64 8, ptr nonnull %11) #15
  call void @llvm.lifetime.end.p0(i64 8, ptr nonnull %10) #15
  call void @llvm.lifetime.end.p0(i64 4, ptr nonnull %9) #15
  call void @llvm.lifetime.end.p0(i64 4, ptr nonnull %8) #15
  call void @llvm.lifetime.end.p0(i64 4, ptr nonnull %7) #15
  call void @llvm.lifetime.end.p0(i64 4, ptr nonnull %6) #15
  br label %54

54:                                               ; preds = %53, %5
  ret void
}